Certificate:
    Data:
        Version: 3 (0x2)
        Serial Number: 1 (0x1)
    Signature Algorithm: sha256WithRSAEncryption
        Issuer: C=US, ST=Minnesota, L=Minneapolis, O=Internet Widgits Pty Ltd, CN=ROOT CA
        Validity
            Not Before: Jun  6 14:54:31 2017 GMT
            Not After : Jun  4 14:54:31 2027 GMT
        Subject: C=US, ST=Minnesota, O=Internet Widgits Pty Ltd, CN=server
        Subject Public Key Info:
            Public Key Algorithm: rsaEncryption
                Public-Key: (1024 bit)
                Modulus:
                    00:d7:2e:ec:13:32:3e:e8:ba:8f:9f:d8:d1:d6:f1:
                    b6:e9:75:29:53:1f:67:e5:f9:22:fe:ac:6c:4f:0c:
                    9d:94:64:b9:0f:c6:e5:e2:1e:e1:54:13:c1:0d:57:
                    17:d4:88:55:79:a4:0b:5c:6d:de:e3:9e:14:ce:22:
                    39:22:e7:6a:25:b4:b5:e5:7c:c2:d7:99:3a:e1:41:
                    b7:c9:a1:e8:69:b0:fb:de:b4:be:35:56:14:66:81:
                    c2:cf:21:e1:51:05:e0:3b:54:dd:62:b4:1d:e8:6b:
                    69:c5:c4:e2:2c:74:06:5b:0b:a3:94:36:96:ce:ba:
                    78:6b:fc:85:0f:fd:3b:fe:3f
                Exponent: 65537 (0x10001)
        X509v3 extensions:
            X509v3 Basic Constraints: 
                CA:FALSE
            Netscape Comment: 
                OpenSSL Generated Certificate
            X509v3 Subject Key Identifier: 
                86:FB:E8:5B:44:21:3F:4C:D6:B6:AB:FA:22:0C:18:70:B8:28:52:77
            X509v3 Authority Key Identifier: 
                keyid:2F:58:A5:4D:45:CC:7B:2E:4F:42:1B:B7:BC:1B:E4:84:5A:64:8D:92

    Signature Algorithm: sha256WithRSAEncryption
         b6:57:97:7f:fd:34:24:8c:01:68:5d:06:f8:b5:b9:5b:0d:62:
         5e:f4:92:96:3c:64:22:f7:d8:f8:fb:86:fb:9c:0c:4d:d4:09:
         07:d7:1f:71:bd:0c:5c:6f:44:45:4b:37:52:eb:26:57:97:3b:
         6b:59:0b:72:c6:27:e6:5a:e1:9b:56:ac:f8:0b:0e:5d:22:c4:
         0d:0a:f1:24:fa:93:77:13:d8:1b:16:e2:29:ef:a2:ea:1d:12:
         63:5b:bb:9e:1f:2a:03:91:f9:eb:2c:fb:b3:98:90:aa:f2:d8:
         53:ce:52:56:37:c5:1d:f7:d5:60:1e:ac:e4:5a:92:b5:ed:5f:
         8b:e0
-----BEGIN CERTIFICATE-----
MIICsjCCAhugAwIBAgIBATANBgkqhkiG9w0BAQsFADBsMQswCQYDVQQGEwJVUzES
MBAGA1UECAwJTWlubmVzb3RhMRQwEgYDVQQHDAtNaW5uZWFwb2xpczEhMB8GA1UE
CgwYSW50ZXJuZXQgV2lkZ2l0cyBQdHkgTHRkMRAwDgYDVQQDDAdST09UIENBMB4X
DTE3MDYwNjE0NTQzMVoXDTI3MDYwNDE0NTQzMVowVTELMAkGA1UEBhMCVVMxEjAQ
BgNVBAgMCU1pbm5lc290YTEhMB8GA1UECgwYSW50ZXJuZXQgV2lkZ2l0cyBQdHkg
THRkMQ8wDQYDVQQDDAZzZXJ2ZXIwgZ8wDQYJKoZIhvcNAQEBBQADgY0AMIGJAoGB
ANcu7BMyPui6j5/Y0dbxtul1KVMfZ+X5Iv6sbE8MnZRkuQ/G5eIe4VQTwQ1XF9SI
VXmkC1xt3uOeFM4iOSLnaiW0teV8wteZOuFBt8mh6Gmw+960vjVWFGaBws8h4VEF
4DtU3WK0HehracXE4ix0BlsLo5Q2ls66eGv8hQ/9O/4/AgMBAAGjezB5MAkGA1Ud
EwQCMAAwLAYJYIZIAYb4QgENBB8WHU9wZW5TU0wgR2VuZXJhdGVkIENlcnRpZmlj
YXRlMB0GA1UdDgQWBBSG++hbRCE/TNa2q/oiDBhwuChSdzAfBgNVHSMEGDAWgBQv
WKVNRcx7Lk9CG7e8G+SEWmSNkjANBgkqhkiG9w0BAQsFAAOBgQC2V5d//TQkjAFo
XQb4tblbDWJe9JKWPGQi99j4+4b7nAxN1AkH1x9xvQxcb0RFSzdS6yZXlztrWQty
xifmWuGbVqz4Cw5dIsQNCvEk+pN3E9gbFuIp76LqHRJjW7ueHyoDkfnrLPuzmJCq
8thTzlJWN8Ud99VgHqzkWpK17V+L4A==
-----END CERTIFICATE-----
