Certificate:
    Data:
        Version: 3 (0x2)
        Serial Number: 2 (0x2)
    Signature Algorithm: sha256WithRSAEncryption
        Issuer: C=US, ST=Minnesota, L=Minneapolis, O=Internet Widgits Pty Ltd, CN=ROOT CA
        Validity
            Not Before: Jun  6 15:37:00 2017 GMT
            Not After : Jun  4 15:37:00 2027 GMT
        Subject: C=US, ST=Minnesota, O=Internet Widgits Pty Ltd, CN=zend-ldap-tests.local
        Subject Public Key Info:
            Public Key Algorithm: rsaEncryption
                Public-Key: (1024 bit)
                Modulus:
                    00:e2:ba:68:04:03:b5:ac:bf:40:c9:f4:6d:1a:f0:
                    6a:26:fc:9c:3a:bd:bd:46:dc:3c:ba:8d:6d:62:f0:
                    61:13:24:e8:11:41:e8:16:24:3a:11:58:c4:8d:2b:
                    f1:7a:cf:75:a0:0c:94:da:08:96:0d:e5:c2:c7:4b:
                    dc:81:be:c3:29:81:55:83:9e:a8:53:21:fb:78:de:
                    3a:12:af:7c:91:2d:92:a1:eb:8b:99:fd:a7:f0:80:
                    46:2e:e7:c9:4a:11:b1:b2:b4:03:07:9b:a4:cb:37:
                    c1:44:77:43:14:89:91:60:98:4d:94:92:c2:65:68:
                    50:59:60:ac:a4:29:30:bd:cf
                Exponent: 65537 (0x10001)
        X509v3 extensions:
            X509v3 Basic Constraints: 
                CA:FALSE
            Netscape Comment: 
                OpenSSL Generated Certificate
            X509v3 Subject Key Identifier: 
                83:BF:E3:53:A5:DE:72:4C:57:DD:ED:22:DB:59:A0:2B:7D:3B:3A:C7
            X509v3 Authority Key Identifier: 
                keyid:2F:58:A5:4D:45:CC:7B:2E:4F:42:1B:B7:BC:1B:E4:84:5A:64:8D:92

    Signature Algorithm: sha256WithRSAEncryption
         7b:51:4d:96:f4:70:21:f5:e3:18:10:00:31:4b:ce:7a:da:01:
         9e:f1:ec:2b:7e:ff:44:2e:09:93:0e:53:62:18:7b:48:9e:a5:
         a4:78:10:43:6b:ca:aa:94:ef:ed:e7:90:50:7b:8a:15:e1:0a:
         9a:f1:84:dc:a5:bd:a7:7a:74:ca:7c:d1:b3:30:be:8c:27:2e:
         5e:f2:0e:4d:cf:a1:a9:6a:30:63:7e:31:ae:fa:98:dd:4c:be:
         37:d2:2e:43:a3:1c:36:f8:57:70:f0:7a:79:b9:6a:3c:a3:16:
         7b:4d:68:b5:42:67:8e:f6:ab:3f:50:e0:4d:dc:7e:75:a4:2d:
         81:2f
-----BEGIN CERTIFICATE-----
MIICwTCCAiqgAwIBAgIBAjANBgkqhkiG9w0BAQsFADBsMQswCQYDVQQGEwJVUzES
MBAGA1UECAwJTWlubmVzb3RhMRQwEgYDVQQHDAtNaW5uZWFwb2xpczEhMB8GA1UE
CgwYSW50ZXJuZXQgV2lkZ2l0cyBQdHkgTHRkMRAwDgYDVQQDDAdST09UIENBMB4X
DTE3MDYwNjE1MzcwMFoXDTI3MDYwNDE1MzcwMFowZDELMAkGA1UEBhMCVVMxEjAQ
BgNVBAgMCU1pbm5lc290YTEhMB8GA1UECgwYSW50ZXJuZXQgV2lkZ2l0cyBQdHkg
THRkMR4wHAYDVQQDDBV6ZW5kLWxkYXAtdGVzdHMubG9jYWwwgZ8wDQYJKoZIhvcN
AQEBBQADgY0AMIGJAoGBAOK6aAQDtay/QMn0bRrwaib8nDq9vUbcPLqNbWLwYRMk
6BFB6BYkOhFYxI0r8XrPdaAMlNoIlg3lwsdL3IG+wymBVYOeqFMh+3jeOhKvfJEt
kqHri5n9p/CARi7nyUoRsbK0AwebpMs3wUR3QxSJkWCYTZSSwmVoUFlgrKQpML3P
AgMBAAGjezB5MAkGA1UdEwQCMAAwLAYJYIZIAYb4QgENBB8WHU9wZW5TU0wgR2Vu
ZXJhdGVkIENlcnRpZmljYXRlMB0GA1UdDgQWBBSDv+NTpd5yTFfd7SLbWaArfTs6
xzAfBgNVHSMEGDAWgBQvWKVNRcx7Lk9CG7e8G+SEWmSNkjANBgkqhkiG9w0BAQsF
AAOBgQB7UU2W9HAh9eMYEAAxS8562gGe8ewrfv9ELgmTDlNiGHtInqWkeBBDa8qq
lO/t55BQe4oV4Qqa8YTcpb2nenTKfNGzML6MJy5e8g5Nz6GpajBjfjGu+pjdTL43
0i5Doxw2+Fdw8Hp5uWo8oxZ7TWi1QmeO9qs/UOBN3H51pC2BLw==
-----END CERTIFICATE-----
